; Function Attrs: null_pointer_is_valid sspstrong uwtable
define internal i32 @dissect_h245_T_unsigned32Min(ptr noundef %0, i32 noundef %1, ptr noundef %2, ptr noundef %3, i32 noundef %4) #1 {
  %6 = alloca i32, align 4
  call void @llvm.lifetime.start.p0(i64 4, ptr nonnull %6) #13
  %7 = call i32 @dissect_per_constrained_integer(ptr noundef %0, i32 noundef %1, ptr noundef %2, ptr noundef %3, i32 noundef %4, i32 noundef 0, i32 noundef -1, ptr noundef nonnull %6, i1 noundef zeroext false)
  %8 = getelementptr inbounds nuw i8, ptr %2, i64 48
  %9 = load ptr, ptr %8, align 8
  %10 = call ptr @gef_ctx_get(ptr noundef %9)
  %.not = icmp eq ptr %10, null
  br i1 %.not, label %46, label %11

11:                                               ; preds = %5
  %12 = getelementptr inbounds nuw i8, ptr %2, i64 16
  %13 = load ptr, ptr %12, align 8
  %14 = getelementptr inbounds nuw i8, ptr %13, i64 408
  %15 = load ptr, ptr %14, align 8
  %16 = call noalias dereferenceable_or_null(4) ptr @wmem_alloc(ptr noundef %15, i64 noundef 4) #11
  %17 = load i32, ptr %6, align 4
  %18 = lshr i32 %17, 24
  %19 = trunc nuw i32 %18 to i8
  store i8 %19, ptr %16, align 1
  %20 = lshr i32 %17, 16
  %21 = trunc i32 %20 to i8
  %22 = getelementptr i8, ptr %16, i64 1
  store i8 %21, ptr %22, align 1
  %23 = lshr i32 %17, 8
  %24 = trunc i32 %23 to i8
  %25 = getelementptr i8, ptr %16, i64 2
  store i8 %24, ptr %25, align 1
  %26 = trunc i32 %17 to i8
  %27 = getelementptr i8, ptr %16, i64 3
  store i8 %26, ptr %27, align 1
  %28 = call ptr @tvb_new_child_real_data(ptr noundef %0, ptr noundef %16, i32 noundef 4, i32 noundef 4)
  %29 = load i32, ptr @hf_h245_debug_dissector_try_string, align 4
  %30 = ashr i32 %7, 3
  %31 = getelementptr inbounds nuw i8, ptr %10, i64 40
  %32 = load ptr, ptr %31, align 8
  %33 = call ptr @proto_tree_add_string(ptr noundef %3, i32 noundef %29, ptr noundef %0, i32 noundef %30, i32 noundef 0, ptr noundef %32)
  %.not.i = icmp eq ptr %33, null
  br i1 %.not.i, label %proto_item_set_hidden.exit, label %34

34:                                               ; preds = %11
  %35 = getelementptr inbounds nuw i8, ptr %33, i64 40
  %36 = load ptr, ptr %35, align 8
  %.not5.i = icmp eq ptr %36, null
  br i1 %.not5.i, label %proto_item_set_hidden.exit, label %37

37:                                               ; preds = %34
  %38 = getelementptr inbounds nuw i8, ptr %36, i64 28
  %39 = load i32, ptr %38, align 4
  %40 = or i32 %39, 1
  store i32 %40, ptr %38, align 4
  br label %proto_item_set_hidden.exit

proto_item_set_hidden.exit:                       ; preds = %11, %34, %37
  %41 = load ptr, ptr %12, align 8
  call void @add_new_data_source(ptr noundef %41, ptr noundef %28, ptr noundef nonnull @.str.1479)
  %42 = load ptr, ptr @gef_content_dissector_table, align 8
  %43 = load ptr, ptr %31, align 8
  %44 = load ptr, ptr %12, align 8
  %45 = call i32 @dissector_try_string_with_data(ptr noundef %42, ptr noundef %43, ptr noundef %28, ptr noundef %44, ptr noundef %3, i1 noundef zeroext true, ptr noundef %2)
  br label %46

46:                                               ; preds = %proto_item_set_hidden.exit, %5
  call void @llvm.lifetime.end.p0(i64 4, ptr nonnull %6) #13
  ret i32 %7
}